; ModuleID = '46/2827.c'
source_filename = "46/2827.c"
target datalayout = "e-m:e-p270:32:32-p271:32:32-p272:64:64-i64:64-f80:128-n8:16:32:64-S128"
target triple = "x86_64-pc-linux-gnu"

@.str = private unnamed_addr constant [5 x i8] c"%d%d\00", align 1
@.str.1 = private unnamed_addr constant [3 x i8] c"%d\00", align 1
@.str.2 = private unnamed_addr constant [4 x i8] c"%d\0A\00", align 1

; Function Attrs: noinline nounwind uwtable
define dso_local i32 @main() #0 {
  %1 = alloca i32, align 4
  %2 = alloca i32, align 4
  %3 = alloca i32, align 4
  %4 = alloca i32, align 4
  %5 = alloca i32, align 4
  %6 = alloca i32, align 4
  %7 = alloca i32, align 4
  %8 = alloca i32, align 4
  %9 = alloca i32, align 4
  %10 = alloca [100 x [100 x i32]], align 16
  store i32 0, i32* %1, align 4
  %11 = call i32 (i8*, ...) @__isoc99_scanf(i8* getelementptr inbounds ([5 x i8], [5 x i8]* @.str, i64 0, i64 0), i32* %2, i32* %3)
  store i32 0, i32* %8, align 4
  br label %12

12:                                               ; preds = %33, %0
  %13 = load i32, i32* %8, align 4
  %14 = load i32, i32* %2, align 4
  %15 = icmp slt i32 %13, %14
  br i1 %15, label %16, label %36

16:                                               ; preds = %12
  store i32 0, i32* %9, align 4
  br label %17

17:                                               ; preds = %29, %16
  %18 = load i32, i32* %9, align 4
  %19 = load i32, i32* %3, align 4
  %20 = icmp slt i32 %18, %19
  br i1 %20, label %21, label %32

21:                                               ; preds = %17
  %22 = load i32, i32* %8, align 4
  %23 = sext i32 %22 to i64
  %24 = getelementptr inbounds [100 x [100 x i32]], [100 x [100 x i32]]* %10, i64 0, i64 %23
  %25 = load i32, i32* %9, align 4
  %26 = sext i32 %25 to i64
  %27 = getelementptr inbounds [100 x i32], [100 x i32]* %24, i64 0, i64 %26
  %28 = call i32 (i8*, ...) @__isoc99_scanf(i8* getelementptr inbounds ([3 x i8], [3 x i8]* @.str.1, i64 0, i64 0), i32* %27)
  br label %29

29:                                               ; preds = %21
  %30 = load i32, i32* %9, align 4
  %31 = add nsw i32 %30, 1
  store i32 %31, i32* %9, align 4
  br label %17

32:                                               ; preds = %17
  br label %33

33:                                               ; preds = %32
  %34 = load i32, i32* %8, align 4
  %35 = add nsw i32 %34, 1
  store i32 %35, i32* %8, align 4
  br label %12

36:                                               ; preds = %12
  store i32 0, i32* %8, align 4
  store i32 0, i32* %9, align 4
  store i32 0, i32* %4, align 4
  %37 = load i32, i32* %2, align 4
  %38 = sub nsw i32 %37, 1
  store i32 %38, i32* %5, align 4
  store i32 0, i32* %6, align 4
  %39 = load i32, i32* %3, align 4
  %40 = sub nsw i32 %39, 1
  store i32 %40, i32* %7, align 4
  br label %41

41:                                               ; preds = %123, %36
  %42 = load i32, i32* %4, align 4
  %43 = load i32, i32* %5, align 4
  %44 = icmp slt i32 %42, %43
  br i1 %44, label %45, label %49

45:                                               ; preds = %41
  %46 = load i32, i32* %6, align 4
  %47 = load i32, i32* %7, align 4
  %48 = icmp slt i32 %46, %47
  br label %49

49:                                               ; preds = %45, %41
  %50 = phi i1 [ false, %41 ], [ %48, %45 ]
  br i1 %50, label %51, label %132

51:                                               ; preds = %49
  %52 = load i32, i32* %6, align 4
  store i32 %52, i32* %9, align 4
  br label %53

53:                                               ; preds = %66, %51
  %54 = load i32, i32* %9, align 4
  %55 = load i32, i32* %7, align 4
  %56 = icmp slt i32 %54, %55
  br i1 %56, label %57, label %69

57:                                               ; preds = %53
  %58 = load i32, i32* %4, align 4
  %59 = sext i32 %58 to i64
  %60 = getelementptr inbounds [100 x [100 x i32]], [100 x [100 x i32]]* %10, i64 0, i64 %59
  %61 = load i32, i32* %9, align 4
  %62 = sext i32 %61 to i64
  %63 = getelementptr inbounds [100 x i32], [100 x i32]* %60, i64 0, i64 %62
  %64 = load i32, i32* %63, align 4
  %65 = call i32 (i8*, ...) @printf(i8* getelementptr inbounds ([4 x i8], [4 x i8]* @.str.2, i64 0, i64 0), i32 %64)
  br label %66

66:                                               ; preds = %57
  %67 = load i32, i32* %9, align 4
  %68 = add nsw i32 %67, 1
  store i32 %68, i32* %9, align 4
  br label %53

69:                                               ; preds = %53
  %70 = load i32, i32* %4, align 4
  store i32 %70, i32* %8, align 4
  br label %71

71:                                               ; preds = %84, %69
  %72 = load i32, i32* %8, align 4
  %73 = load i32, i32* %5, align 4
  %74 = icmp slt i32 %72, %73
  br i1 %74, label %75, label %87

75:                                               ; preds = %71
  %76 = load i32, i32* %8, align 4
  %77 = sext i32 %76 to i64
  %78 = getelementptr inbounds [100 x [100 x i32]], [100 x [100 x i32]]* %10, i64 0, i64 %77
  %79 = load i32, i32* %7, align 4
  %80 = sext i32 %79 to i64
  %81 = getelementptr inbounds [100 x i32], [100 x i32]* %78, i64 0, i64 %80
  %82 = load i32, i32* %81, align 4
  %83 = call i32 (i8*, ...) @printf(i8* getelementptr inbounds ([4 x i8], [4 x i8]* @.str.2, i64 0, i64 0), i32 %82)
  br label %84

84:                                               ; preds = %75
  %85 = load i32, i32* %8, align 4
  %86 = add nsw i32 %85, 1
  store i32 %86, i32* %8, align 4
  br label %71

87:                                               ; preds = %71
  %88 = load i32, i32* %7, align 4
  store i32 %88, i32* %9, align 4
  br label %89

89:                                               ; preds = %102, %87
  %90 = load i32, i32* %9, align 4
  %91 = load i32, i32* %4, align 4
  %92 = icmp sgt i32 %90, %91
  br i1 %92, label %93, label %105

93:                                               ; preds = %89
  %94 = load i32, i32* %5, align 4
  %95 = sext i32 %94 to i64
  %96 = getelementptr inbounds [100 x [100 x i32]], [100 x [100 x i32]]* %10, i64 0, i64 %95
  %97 = load i32, i32* %9, align 4
  %98 = sext i32 %97 to i64
  %99 = getelementptr inbounds [100 x i32], [100 x i32]* %96, i64 0, i64 %98
  %100 = load i32, i32* %99, align 4
  %101 = call i32 (i8*, ...) @printf(i8* getelementptr inbounds ([4 x i8], [4 x i8]* @.str.2, i64 0, i64 0), i32 %100)
  br label %102

102:                                              ; preds = %93
  %103 = load i32, i32* %9, align 4
  %104 = add nsw i32 %103, -1
  store i32 %104, i32* %9, align 4
  br label %89

105:                                              ; preds = %89
  %106 = load i32, i32* %5, align 4
  store i32 %106, i32* %8, align 4
  br label %107

107:                                              ; preds = %120, %105
  %108 = load i32, i32* %8, align 4
  %109 = load i32, i32* %4, align 4
  %110 = icmp sgt i32 %108, %109
  br i1 %110, label %111, label %123

111:                                              ; preds = %107
  %112 = load i32, i32* %8, align 4
  %113 = sext i32 %112 to i64
  %114 = getelementptr inbounds [100 x [100 x i32]], [100 x [100 x i32]]* %10, i64 0, i64 %113
  %115 = load i32, i32* %6, align 4
  %116 = sext i32 %115 to i64
  %117 = getelementptr inbounds [100 x i32], [100 x i32]* %114, i64 0, i64 %116
  %118 = load i32, i32* %117, align 4
  %119 = call i32 (i8*, ...) @printf(i8* getelementptr inbounds ([4 x i8], [4 x i8]* @.str.2, i64 0, i64 0), i32 %118)
  br label %120

120:                                              ; preds = %111
  %121 = load i32, i32* %8, align 4
  %122 = add nsw i32 %121, -1
  store i32 %122, i32* %8, align 4
  br label %107

123:                                              ; preds = %107
  %124 = load i32, i32* %4, align 4
  %125 = add nsw i32 %124, 1
  store i32 %125, i32* %4, align 4
  %126 = load i32, i32* %5, align 4
  %127 = add nsw i32 %126, -1
  store i32 %127, i32* %5, align 4
  %128 = load i32, i32* %6, align 4
  %129 = add nsw i32 %128, 1
  store i32 %129, i32* %6, align 4
  %130 = load i32, i32* %7, align 4
  %131 = add nsw i32 %130, -1
  store i32 %131, i32* %7, align 4
  br label %41

132:                                              ; preds = %49
  %133 = load i32, i32* %4, align 4
  %134 = load i32, i32* %5, align 4
  %135 = icmp eq i32 %133, %134
  br i1 %135, label %140, label %136

136:                                              ; preds = %132
  %137 = load i32, i32* %6, align 4
  %138 = load i32, i32* %7, align 4
  %139 = icmp eq i32 %137, %138
  br i1 %139, label %140, label %212

140:                                              ; preds = %136, %132
  %141 = load i32, i32* %4, align 4
  %142 = load i32, i32* %5, align 4
  %143 = icmp eq i32 %141, %142
  br i1 %143, label %144, label %167

144:                                              ; preds = %140
  %145 = load i32, i32* %6, align 4
  %146 = load i32, i32* %7, align 4
  %147 = icmp ne i32 %145, %146
  br i1 %147, label %148, label %167

148:                                              ; preds = %144
  %149 = load i32, i32* %6, align 4
  store i32 %149, i32* %9, align 4
  br label %150

150:                                              ; preds = %163, %148
  %151 = load i32, i32* %9, align 4
  %152 = load i32, i32* %7, align 4
  %153 = icmp sle i32 %151, %152
  br i1 %153, label %154, label %166

154:                                              ; preds = %150
  %155 = load i32, i32* %4, align 4
  %156 = sext i32 %155 to i64
  %157 = getelementptr inbounds [100 x [100 x i32]], [100 x [100 x i32]]* %10, i64 0, i64 %156
  %158 = load i32, i32* %9, align 4
  %159 = sext i32 %158 to i64
  %160 = getelementptr inbounds [100 x i32], [100 x i32]* %157, i64 0, i64 %159
  %161 = load i32, i32* %160, align 4
  %162 = call i32 (i8*, ...) @printf(i8* getelementptr inbounds ([4 x i8], [4 x i8]* @.str.2, i64 0, i64 0), i32 %161)
  br label %163

163:                                              ; preds = %154
  %164 = load i32, i32* %9, align 4
  %165 = add nsw i32 %164, 1
  store i32 %165, i32* %9, align 4
  br label %150

166:                                              ; preds = %150
  br label %167

167:                                              ; preds = %166, %144, %140
  %168 = load i32, i32* %4, align 4
  %169 = load i32, i32* %5, align 4
  %170 = icmp ne i32 %168, %169
  br i1 %170, label %171, label %194

171:                                              ; preds = %167
  %172 = load i32, i32* %6, align 4
  %173 = load i32, i32* %7, align 4
  %174 = icmp eq i32 %172, %173
  br i1 %174, label %175, label %194

175:                                              ; preds = %171
  %176 = load i32, i32* %4, align 4
  store i32 %176, i32* %8, align 4
  br label %177

177:                                              ; preds = %190, %175
  %178 = load i32, i32* %8, align 4
  %179 = load i32, i32* %5, align 4
  %180 = icmp sle i32 %178, %179
  br i1 %180, label %181, label %193

181:                                              ; preds = %177
  %182 = load i32, i32* %8, align 4
  %183 = sext i32 %182 to i64
  %184 = getelementptr inbounds [100 x [100 x i32]], [100 x [100 x i32]]* %10, i64 0, i64 %183
  %185 = load i32, i32* %6, align 4
  %186 = sext i32 %185 to i64
  %187 = getelementptr inbounds [100 x i32], [100 x i32]* %184, i64 0, i64 %186
  %188 = load i32, i32* %187, align 4
  %189 = call i32 (i8*, ...) @printf(i8* getelementptr inbounds ([4 x i8], [4 x i8]* @.str.2, i64 0, i64 0), i32 %188)
  br label %190

190:                                              ; preds = %181
  %191 = load i32, i32* %8, align 4
  %192 = add nsw i32 %191, 1
  store i32 %192, i32* %8, align 4
  br label %177

193:                                              ; preds = %177
  br label %194

194:                                              ; preds = %193, %171, %167
  %195 = load i32, i32* %4, align 4
  %196 = load i32, i32* %5, align 4
  %197 = icmp eq i32 %195, %196
  br i1 %197, label %198, label %211

198:                                              ; preds = %194
  %199 = load i32, i32* %6, align 4
  %200 = load i32, i32* %7, align 4
  %201 = icmp eq i32 %199, %200
  br i1 %201, label %202, label %211

202:                                              ; preds = %198
  %203 = load i32, i32* %4, align 4
  %204 = sext i32 %203 to i64
  %205 = getelementptr inbounds [100 x [100 x i32]], [100 x [100 x i32]]* %10, i64 0, i64 %204
  %206 = load i32, i32* %6, align 4
  %207 = sext i32 %206 to i64
  %208 = getelementptr inbounds [100 x i32], [100 x i32]* %205, i64 0, i64 %207
  %209 = load i32, i32* %208, align 4
  %210 = call i32 (i8*, ...) @printf(i8* getelementptr inbounds ([4 x i8], [4 x i8]* @.str.2, i64 0, i64 0), i32 %209)
  br label %211

211:                                              ; preds = %202, %198, %194
  br label %212

212:                                              ; preds = %211, %136
  ret i32 0
}

declare dso_local i32 @__isoc99_scanf(i8*, ...) #1

declare dso_local i32 @printf(i8*, ...) #1


!llvm.module.flags = !{!0}
!llvm.ident = !{!1}

!0 = !{i32 1, !"wchar_size", i32 4}
!1 = !{!"clang version 10.0.0-4ubuntu1 "}
